ccopy_reg
_reconstructor
p1
(cxmppd.modules.db_fake
DictWatch
p2
c__builtin__
dict
p3
(dp4
S'vagrant-ubuntu-trusty-64'
p5
g1
(g2
g3
(dp6
S'acc'
p7
g1
(g2
g3
(dp8
S'name'
p9
S'ACC'
p10
sS'groups'
p11
g1
(g2
g3
(dtRp12
sS'roster'
p13
g1
(g2
g3
(dtRp14
sS'anon_allow'
p15
S'yes'
p16
sS'password'
p17
S'sjRbUQZw'
p18
sS'storage'
p19
g1
(g2
g3
(dtRp20
stRp21
sS'df'
p22
g1
(g2
g3
(dp23
g9
S'DF'
p24
sg11
g1
(g2
g3
(dtRp25
sg13
g1
(g2
g3
(dtRp26
sg15
g16
sg17
S'AkEcyLrY'
p27
sg19
g1
(g2
g3
(dtRp28
stRp29
sS'ams'
p30
g1
(g2
g3
(dp31
g9
S'AMS'
p32
sg11
g1
(g2
g3
(dtRp33
sg13
g1
(g2
g3
(dtRp34
sg15
g16
sg17
S'GeiRTbHk'
p35
sg19
g1
(g2
g3
(dtRp36
stRp37
stRp38
sS'127.0.0.1'
p39
g1
(g2
g3
(dp40
S'acc'
p41
g1
(g2
g3
(dp42
S'name'
p43
S'ACC'
p44
sS'groups'
p45
g1
(g2
g3
(dtRp46
sS'roster'
p47
g1
(g2
g3
(dtRp48
sS'anon_allow'
p49
S'yes'
p50
sS'password'
p51
S'sjRbUQZw'
p52
sS'storage'
p53
g1
(g2
g3
(dtRp54
stRp55
sVclient
p56
g1
(g2
g3
(dp57
g43
Vclient
p58
sg45
g1
(g2
g3
(dtRp59
sg47
g1
(g2
g3
(dp60
Vams.127.0.0.1
p61
(dp62
S'state'
p63
S''
sS'subscription'
p64
S'to'
p65
sstRp66
sg49
g50
sg51
Vsecret
p67
sg53
g1
(g2
g3
(dtRp68
stRp69
sVtracker
p70
g1
(g2
g3
(dp71
S'name'
p72
Vtracker
p73
sS'groups'
p74
g1
(g2
g3
(dtRp75
sS'roster'
p76
g1
(g2
g3
(dp77
Vams.127.0.0.1
p78
(dp79
S'state'
p80
S''
sS'subscription'
p81
S'to'
p82
sstRp83
sS'anon_allow'
p84
S'yes'
p85
sS'password'
p86
Vsecret
p87
sS'storage'
p88
g1
(g2
g3
(dtRp89
stRp90
sS'df'
p91
g1
(g2
g3
(dp92
g43
S'DF'
p93
sg45
g1
(g2
g3
(dtRp94
sg47
g1
(g2
g3
(dtRp95
sg49
g50
sg51
S'AkEcyLrY'
p96
sg53
g1
(g2
g3
(dtRp97
stRp98
sS'ams'
p99
g1
(g2
g3
(dp100
g43
S'AMS'
p101
sg45
g1
(g2
g3
(dtRp102
sg47
g1
(g2
g3
(dp103
S'client@127.0.0.1'
p104
(dp105
g63
S''
sg64
S'from'
p106
sstRp107
sg49
g50
sg51
S'GeiRTbHk'
p108
sg53
g1
(g2
g3
(dtRp109
stRp110
sVagent
p111
g1
(g2
g3
(dp112
g72
Vagent
p113
sg74
g1
(g2
g3
(dtRp114
sg76
g1
(g2
g3
(dp115
Vams.127.0.0.1
p116
(dp117
g80
S''
sg81
g82
sstRp118
sg84
g85
sg86
Vsecret
p119
sg88
g1
(g2
g3
(dtRp120
stRp121
sS'__ir__'
p122
(dp123
g49
g50
sg51
S'test'
p124
sg53
(dp125
S'karma'
p126
(dp127
S'down'
p128
I307200
sS'tot_up'
p129
I0
sS'tot_down'
p130
I0
sS'up'
p131
I307200307200307200
sS'last_time'
p132
F0
sssg45
(dp133
sg47
(dp134
sstRp135
stRp136
.