ccopy_reg
_reconstructor
p1
(cxmppd.modules.db_fake
DictWatch
p2
c__builtin__
dict
p3
(dp4
S'vagrant-ubuntu-trusty-64'
p5
g1
(g2
g3
(dp6
S'acc'
p7
g1
(g2
g3
(dp8
S'name'
p9
S'ACC'
p10
sS'groups'
p11
g1
(g2
g3
(dtRp12
sS'roster'
p13
g1
(g2
g3
(dtRp14
sS'anon_allow'
p15
S'yes'
p16
sS'password'
p17
S'sjRbUQZw'
p18
sS'storage'
p19
g1
(g2
g3
(dtRp20
stRp21
sS'df'
p22
g1
(g2
g3
(dp23
g9
S'DF'
p24
sg11
g1
(g2
g3
(dtRp25
sg13
g1
(g2
g3
(dtRp26
sg15
g16
sg17
S'AkEcyLrY'
p27
sg19
g1
(g2
g3
(dtRp28
stRp29
sS'ams'
p30
g1
(g2
g3
(dp31
g9
S'AMS'
p32
sg11
g1
(g2
g3
(dtRp33
sg13
g1
(g2
g3
(dtRp34
sg15
g16
sg17
S'GeiRTbHk'
p35
sg19
g1
(g2
g3
(dtRp36
stRp37
stRp38
sS'127.0.0.1'
p39
g1
(g2
g3
(dp40
S'acc'
p41
g1
(g2
g3
(dp42
S'name'
p43
S'ACC'
p44
sS'groups'
p45
g1
(g2
g3
(dtRp46
sS'roster'
p47
g1
(g2
g3
(dtRp48
sS'anon_allow'
p49
S'yes'
p50
sS'password'
p51
S'sjRbUQZw'
p52
sS'storage'
p53
g1
(g2
g3
(dtRp54
stRp55
sVa
g1
(g2
g3
(dp56
S'name'
p57
Va
sS'groups'
p58
g1
(g2
g3
(dtRp59
sS'roster'
p60
g1
(g2
g3
(dp61
Vams.127.0.0.1
p62
(dp63
S'state'
p64
S''
sS'subscription'
p65
S'none'
p66
sstRp67
sS'anon_allow'
p68
S'yes'
p69
sS'password'
p70
Vsecret
p71
sS'storage'
p72
g1
(g2
g3
(dtRp73
stRp74
sS'df'
p75
g1
(g2
g3
(dp76
g43
S'DF'
p77
sg45
g1
(g2
g3
(dtRp78
sg47
g1
(g2
g3
(dtRp79
sg49
g50
sg51
S'AkEcyLrY'
p80
sg53
g1
(g2
g3
(dtRp81
stRp82
sVagent
p83
g1
(g2
g3
(dp84
S'name'
p85
Vagent
p86
sS'groups'
p87
g1
(g2
g3
(dtRp88
sS'roster'
p89
g1
(g2
g3
(dp90
Vams.127.0.0.1
p91
(dp92
S'state'
p93
S''
sS'subscription'
p94
S'none'
p95
sstRp96
sS'anon_allow'
p97
S'yes'
p98
sS'password'
p99
Vsecret
p100
sS'storage'
p101
g1
(g2
g3
(dtRp102
stRp103
sVclient
p104
g1
(g2
g3
(dp105
S'name'
p106
Vclient
p107
sS'groups'
p108
g1
(g2
g3
(dtRp109
sS'roster'
p110
g1
(g2
g3
(dp111
Vams.127.0.0.1
p112
(dp113
S'state'
p114
S''
sS'subscription'
p115
S'none'
p116
sstRp117
sS'anon_allow'
p118
S'yes'
p119
sS'password'
p120
Vsecret
p121
sS'storage'
p122
g1
(g2
g3
(dtRp123
stRp124
sVyucatan
p125
g1
(g2
g3
(dp126
S'name'
p127
Vyucatan
p128
sS'groups'
p129
g1
(g2
g3
(dtRp130
sS'roster'
p131
g1
(g2
g3
(dp132
Vams.127.0.0.1
p133
(dp134
S'state'
p135
S''
sS'subscription'
p136
g116
sstRp137
sS'anon_allow'
p138
S'yes'
p139
sS'password'
p140
Vsecret
p141
sS'storage'
p142
g1
(g2
g3
(dtRp143
stRp144
sVtracker
p145
g1
(g2
g3
(dp146
g85
Vtracker
p147
sg87
g1
(g2
g3
(dtRp148
sg89
g1
(g2
g3
(dp149
Vams.127.0.0.1
p150
(dp151
g93
S''
sg94
S'to'
p152
sstRp153
sg97
g98
sg99
Vsecret
p154
sg101
g1
(g2
g3
(dtRp155
stRp156
sS'ams'
p157
g1
(g2
g3
(dp158
g43
S'AMS'
p159
sg45
g1
(g2
g3
(dtRp160
sg47
g1
(g2
g3
(dp161
S'client@127.0.0.1'
p162
(dp163
S'state'
p164
S''
sS'subscription'
p165
g116
ssS'yucatan@127.0.0.1'
p166
(dp167
g164
S''
sg165
g116
sstRp168
sg49
g50
sg51
S'GeiRTbHk'
p169
sg53
g1
(g2
g3
(dtRp170
stRp171
sS'__ir__'
p172
(dp173
g49
g50
sg51
S'test'
p174
sg53
(dp175
S'karma'
p176
(dp177
S'down'
p178
I307200
sS'tot_up'
p179
I0
sS'tot_down'
p180
I0
sS'up'
p181
L307200307200307200L
sS'last_time'
p182
F0
sssg45
(dp183
sg47
(dp184
sstRp185
stRp186
.