ccopy_reg
_reconstructor
p1
(cxmppd.modules.db_fake
DictWatch
p2
c__builtin__
dict
p3
(dp4
S'vagrant-ubuntu-trusty-64'
p5
g1
(g2
g3
(dp6
S'acc'
p7
g1
(g2
g3
(dp8
S'name'
p9
S'ACC'
p10
sS'groups'
p11
g1
(g2
g3
(dtRp12
sS'roster'
p13
g1
(g2
g3
(dtRp14
sS'anon_allow'
p15
S'yes'
p16
sS'password'
p17
S'sjRbUQZw'
p18
sS'storage'
p19
g1
(g2
g3
(dtRp20
stRp21
sS'df'
p22
g1
(g2
g3
(dp23
g9
S'DF'
p24
sg11
g1
(g2
g3
(dtRp25
sg13
g1
(g2
g3
(dtRp26
sg15
g16
sg17
S'AkEcyLrY'
p27
sg19
g1
(g2
g3
(dtRp28
stRp29
sS'ams'
p30
g1
(g2
g3
(dp31
g9
S'AMS'
p32
sg11
g1
(g2
g3
(dtRp33
sg13
g1
(g2
g3
(dtRp34
sg15
g16
sg17
S'GeiRTbHk'
p35
sg19
g1
(g2
g3
(dtRp36
stRp37
stRp38
sS'127.0.0.1'
p39
g1
(g2
g3
(dp40
S'acc'
p41
g1
(g2
g3
(dp42
S'name'
p43
S'ACC'
p44
sS'groups'
p45
g1
(g2
g3
(dtRp46
sS'roster'
p47
g1
(g2
g3
(dtRp48
sS'anon_allow'
p49
S'yes'
p50
sS'password'
p51
S'sjRbUQZw'
p52
sS'storage'
p53
g1
(g2
g3
(dtRp54
stRp55
sS'df'
p56
g1
(g2
g3
(dp57
g43
S'DF'
p58
sg45
g1
(g2
g3
(dtRp59
sg47
g1
(g2
g3
(dtRp60
sg49
g50
sg51
S'AkEcyLrY'
p61
sg53
g1
(g2
g3
(dtRp62
stRp63
sS'ams'
p64
g1
(g2
g3
(dp65
g43
S'AMS'
p66
sg45
g1
(g2
g3
(dtRp67
sg47
g1
(g2
g3
(dp68
S'tracker@127.0.0.1'
p69
(dp70
S'state'
p71
S''
sS'subscription'
p72
S'from'
p73
ssS'agent@127.0.0.1'
p74
(dp75
g71
S''
sg72
g73
sstRp76
sg49
g50
sg51
S'GeiRTbHk'
p77
sg53
g1
(g2
g3
(dtRp78
stRp79
sVtracker
p80
g1
(g2
g3
(dp81
S'name'
p82
Vtracker
p83
sS'groups'
p84
g1
(g2
g3
(dtRp85
sS'roster'
p86
g1
(g2
g3
(dp87
Vams.127.0.0.1
p88
(dp89
S'state'
p90
S''
sS'subscription'
p91
S'to'
p92
sstRp93
sS'anon_allow'
p94
S'yes'
p95
sS'password'
p96
Vsecret
p97
sS'storage'
p98
g1
(g2
g3
(dtRp99
stRp100
sVagent
p101
g1
(g2
g3
(dp102
g82
Vagent
p103
sg84
g1
(g2
g3
(dtRp104
sg86
g1
(g2
g3
(dp105
Vams.127.0.0.1
p106
(dp107
g90
S''
sg91
g92
sstRp108
sg94
g95
sg96
Vsecret
p109
sg98
g1
(g2
g3
(dtRp110
stRp111
stRp112
stRp113
.